; ModuleID = '2/124.c'
source_filename = "2/124.c"
target datalayout = "e-m:e-p270:32:32-p271:32:32-p272:64:64-i64:64-f80:128-n8:16:32:64-S128"
target triple = "x86_64-pc-linux-gnu"

@.str = private unnamed_addr constant [3 x i8] c"%d\00", align 1
@.str.1 = private unnamed_addr constant [5 x i8] c"%d%s\00", align 1
@.str.2 = private unnamed_addr constant [7 x i8] c"%c\0A%d\0A\00", align 1
@.str.3 = private unnamed_addr constant [4 x i8] c"%d\0A\00", align 1

; Function Attrs: noinline nounwind uwtable
define dso_local i32 @main() #0 {
  %1 = alloca i32, align 4
  %2 = alloca [200 x [100 x i8]], align 16
  %3 = alloca [100 x i32], align 16
  %4 = alloca [100 x i32], align 16
  %5 = alloca [100 x i32], align 16
  %6 = alloca i32, align 4
  %7 = alloca i32, align 4
  %8 = alloca i32, align 4
  %9 = alloca i32, align 4
  %10 = alloca i32, align 4
  %11 = alloca i32, align 4
  %12 = alloca i32, align 4
  %13 = alloca i8, align 1
  store i32 0, i32* %1, align 4
  store i32 0, i32* %12, align 4
  %14 = call i32 (i8*, ...) @__isoc99_scanf(i8* getelementptr inbounds ([3 x i8], [3 x i8]* @.str, i64 0, i64 0), i32* %6)
  store i32 0, i32* %7, align 4
  br label %15

15:                                               ; preds = %28, %0
  %16 = load i32, i32* %7, align 4
  %17 = load i32, i32* %6, align 4
  %18 = icmp slt i32 %16, %17
  br i1 %18, label %19, label %31

19:                                               ; preds = %15
  %20 = load i32, i32* %7, align 4
  %21 = sext i32 %20 to i64
  %22 = getelementptr inbounds [100 x i32], [100 x i32]* %3, i64 0, i64 %21
  %23 = load i32, i32* %7, align 4
  %24 = sext i32 %23 to i64
  %25 = getelementptr inbounds [200 x [100 x i8]], [200 x [100 x i8]]* %2, i64 0, i64 %24
  %26 = getelementptr inbounds [100 x i8], [100 x i8]* %25, i64 0, i64 0
  %27 = call i32 (i8*, ...) @__isoc99_scanf(i8* getelementptr inbounds ([5 x i8], [5 x i8]* @.str.1, i64 0, i64 0), i32* %22, i8* %26)
  br label %28

28:                                               ; preds = %19
  %29 = load i32, i32* %7, align 4
  %30 = add nsw i32 %29, 1
  store i32 %30, i32* %7, align 4
  br label %15

31:                                               ; preds = %15
  store i32 65, i32* %8, align 4
  br label %32

32:                                               ; preds = %104, %31
  %33 = load i32, i32* %8, align 4
  %34 = icmp sle i32 %33, 90
  br i1 %34, label %35, label %107

35:                                               ; preds = %32
  store i32 0, i32* %11, align 4
  store i32 0, i32* %7, align 4
  br label %36

36:                                               ; preds = %76, %35
  %37 = load i32, i32* %7, align 4
  %38 = load i32, i32* %6, align 4
  %39 = icmp slt i32 %37, %38
  br i1 %39, label %40, label %79

40:                                               ; preds = %36
  store i32 0, i32* %9, align 4
  br label %41

41:                                               ; preds = %72, %40
  %42 = load i32, i32* %9, align 4
  %43 = sext i32 %42 to i64
  %44 = load i32, i32* %7, align 4
  %45 = sext i32 %44 to i64
  %46 = getelementptr inbounds [200 x [100 x i8]], [200 x [100 x i8]]* %2, i64 0, i64 %45
  %47 = getelementptr inbounds [100 x i8], [100 x i8]* %46, i64 0, i64 0
  %48 = call i64 @strlen(i8* %47) #3
  %49 = icmp ult i64 %43, %48
  br i1 %49, label %50, label %75

50:                                               ; preds = %41
  %51 = load i32, i32* %7, align 4
  %52 = sext i32 %51 to i64
  %53 = getelementptr inbounds [200 x [100 x i8]], [200 x [100 x i8]]* %2, i64 0, i64 %52
  %54 = load i32, i32* %9, align 4
  %55 = sext i32 %54 to i64
  %56 = getelementptr inbounds [100 x i8], [100 x i8]* %53, i64 0, i64 %55
  %57 = load i8, i8* %56, align 1
  %58 = sext i8 %57 to i32
  %59 = load i32, i32* %8, align 4
  %60 = icmp eq i32 %58, %59
  br i1 %60, label %61, label %71

61:                                               ; preds = %50
  %62 = load i32, i32* %11, align 4
  %63 = add nsw i32 %62, 1
  store i32 %63, i32* %11, align 4
  %64 = load i32, i32* %7, align 4
  %65 = sext i32 %64 to i64
  %66 = getelementptr inbounds [100 x i32], [100 x i32]* %3, i64 0, i64 %65
  %67 = load i32, i32* %66, align 4
  %68 = load i32, i32* %11, align 4
  %69 = sext i32 %68 to i64
  %70 = getelementptr inbounds [100 x i32], [100 x i32]* %4, i64 0, i64 %69
  store i32 %67, i32* %70, align 4
  br label %71

71:                                               ; preds = %61, %50
  br label %72

72:                                               ; preds = %71
  %73 = load i32, i32* %9, align 4
  %74 = add nsw i32 %73, 1
  store i32 %74, i32* %9, align 4
  br label %41

75:                                               ; preds = %41
  br label %76

76:                                               ; preds = %75
  %77 = load i32, i32* %7, align 4
  %78 = add nsw i32 %77, 1
  store i32 %78, i32* %7, align 4
  br label %36

79:                                               ; preds = %36
  %80 = load i32, i32* %11, align 4
  %81 = load i32, i32* %12, align 4
  %82 = icmp sgt i32 %80, %81
  br i1 %82, label %83, label %103

83:                                               ; preds = %79
  %84 = load i32, i32* %8, align 4
  %85 = trunc i32 %84 to i8
  store i8 %85, i8* %13, align 1
  %86 = load i32, i32* %11, align 4
  store i32 %86, i32* %12, align 4
  store i32 1, i32* %10, align 4
  br label %87

87:                                               ; preds = %99, %83
  %88 = load i32, i32* %10, align 4
  %89 = load i32, i32* %12, align 4
  %90 = icmp sle i32 %88, %89
  br i1 %90, label %91, label %102

91:                                               ; preds = %87
  %92 = load i32, i32* %10, align 4
  %93 = sext i32 %92 to i64
  %94 = getelementptr inbounds [100 x i32], [100 x i32]* %4, i64 0, i64 %93
  %95 = load i32, i32* %94, align 4
  %96 = load i32, i32* %10, align 4
  %97 = sext i32 %96 to i64
  %98 = getelementptr inbounds [100 x i32], [100 x i32]* %5, i64 0, i64 %97
  store i32 %95, i32* %98, align 4
  br label %99

99:                                               ; preds = %91
  %100 = load i32, i32* %10, align 4
  %101 = add nsw i32 %100, 1
  store i32 %101, i32* %10, align 4
  br label %87

102:                                              ; preds = %87
  br label %103

103:                                              ; preds = %102, %79
  br label %104

104:                                              ; preds = %103
  %105 = load i32, i32* %8, align 4
  %106 = add nsw i32 %105, 1
  store i32 %106, i32* %8, align 4
  br label %32

107:                                              ; preds = %32
  %108 = load i8, i8* %13, align 1
  %109 = sext i8 %108 to i32
  %110 = load i32, i32* %12, align 4
  %111 = call i32 (i8*, ...) @printf(i8* getelementptr inbounds ([7 x i8], [7 x i8]* @.str.2, i64 0, i64 0), i32 %109, i32 %110)
  store i32 1, i32* %10, align 4
  br label %112

112:                                              ; preds = %122, %107
  %113 = load i32, i32* %10, align 4
  %114 = load i32, i32* %12, align 4
  %115 = icmp sle i32 %113, %114
  br i1 %115, label %116, label %125

116:                                              ; preds = %112
  %117 = load i32, i32* %10, align 4
  %118 = sext i32 %117 to i64
  %119 = getelementptr inbounds [100 x i32], [100 x i32]* %5, i64 0, i64 %118
  %120 = load i32, i32* %119, align 4
  %121 = call i32 (i8*, ...) @printf(i8* getelementptr inbounds ([4 x i8], [4 x i8]* @.str.3, i64 0, i64 0), i32 %120)
  br label %122

122:                                              ; preds = %116
  %123 = load i32, i32* %10, align 4
  %124 = add nsw i32 %123, 1
  store i32 %124, i32* %10, align 4
  br label %112

125:                                              ; preds = %112
  ret i32 0
}

declare dso_local i32 @__isoc99_scanf(i8*, ...) #1

; Function Attrs: nounwind readonly
declare dso_local i64 @strlen(i8*) #2

declare dso_local i32 @printf(i8*, ...) #1


!llvm.module.flags = !{!0}
!llvm.ident = !{!1}

!0 = !{i32 1, !"wchar_size", i32 4}
!1 = !{!"clang version 10.0.0-4ubuntu1 "}
